target datalayout = "e-m:e-p270:32:32-p271:32:32-p272:64:64-i64:64-i128:128-f80:128-n8:16:32:64-S128"
target triple = "x86_64-pc-linux-gnu"

%struct.TupleTableSlot = type { i32, i16, i16, ptr, ptr, ptr, ptr, ptr, %struct.ItemPointerData, i32 }
%struct.ItemPointerData = type { %struct.BlockIdData, i16 }
%struct.BlockIdData = type { i16, i16 }
%struct.VirtualTupleTableSlot = type { %struct.TupleTableSlot, ptr }

; Function Attrs: inlinehint nounwind uwtable
define internal void @BlockIdSet(ptr noundef %0, i32 noundef %1) #4 {
  %3 = alloca ptr, align 8
  %4 = alloca i32, align 4
  store ptr %0, ptr %3, align 8
  store i32 %1, ptr %4, align 4
  %5 = load i32, ptr %4, align 4
  %6 = lshr i32 %5, 16
  %7 = trunc i32 %6 to i16
  %8 = load ptr, ptr %3, align 8
  %9 = getelementptr inbounds nuw %struct.BlockIdData, ptr %8, i32 0, i32 0
  store i16 %7, ptr %9, align 2
  %10 = load i32, ptr %4, align 4
  %11 = and i32 %10, 65535
  %12 = trunc i32 %11 to i16
  %13 = load ptr, ptr %3, align 8
  %14 = getelementptr inbounds nuw %struct.BlockIdData, ptr %13, i32 0, i32 1
  store i16 %12, ptr %14, align 2
  ret void
}

; Function Attrs: inlinehint nounwind uwtable
define internal void @ItemPointerSetInvalid(ptr noundef %0) #4 {
  %2 = alloca ptr, align 8
  store ptr %0, ptr %2, align 8
  %3 = load ptr, ptr %2, align 8
  %4 = getelementptr inbounds nuw %struct.ItemPointerData, ptr %3, i32 0, i32 0
  call void @BlockIdSet(ptr noundef %4, i32 noundef -1)
  %5 = load ptr, ptr %2, align 8
  %6 = getelementptr inbounds nuw %struct.ItemPointerData, ptr %5, i32 0, i32 1
  store i16 0, ptr %6, align 2
  ret void
}

; Function Attrs: nounwind uwtable
define internal void @tts_virtual_clear(ptr noundef %0) #0 {
  %2 = alloca ptr, align 8
  %3 = alloca ptr, align 8
  store ptr %0, ptr %2, align 8
  %4 = load ptr, ptr %2, align 8
  %5 = getelementptr inbounds nuw %struct.TupleTableSlot, ptr %4, i32 0, i32 1
  %6 = load i16, ptr %5, align 4
  %7 = zext i16 %6 to i32
  %8 = and i32 %7, 4
  %9 = icmp ne i32 %8, 0
  %10 = zext i1 %9 to i32
  %11 = icmp ne i32 %10, 0
  %12 = zext i1 %11 to i32
  %13 = sext i32 %12 to i64
  %14 = call i64 @llvm.expect.i64(i64 %13, i64 0)
  %15 = icmp ne i64 %14, 0
  br i1 %15, label %16, label %29

16:                                               ; preds = %1
  call void @llvm.lifetime.start.p0(i64 8, ptr %3) #10
  %17 = load ptr, ptr %2, align 8
  store ptr %17, ptr %3, align 8
  %18 = load ptr, ptr %3, align 8
  %19 = getelementptr inbounds nuw %struct.VirtualTupleTableSlot, ptr %18, i32 0, i32 1
  %20 = load ptr, ptr %19, align 8
  call void @pfree(ptr noundef %20)
  %21 = load ptr, ptr %3, align 8
  %22 = getelementptr inbounds nuw %struct.VirtualTupleTableSlot, ptr %21, i32 0, i32 1
  store ptr null, ptr %22, align 8
  %23 = load ptr, ptr %2, align 8
  %24 = getelementptr inbounds nuw %struct.TupleTableSlot, ptr %23, i32 0, i32 1
  %25 = load i16, ptr %24, align 4
  %26 = zext i16 %25 to i32
  %27 = and i32 %26, -5
  %28 = trunc i32 %27 to i16
  store i16 %28, ptr %24, align 4
  call void @llvm.lifetime.end.p0(i64 8, ptr %3) #10
  br label %29

29:                                               ; preds = %16, %1
  %30 = load ptr, ptr %2, align 8
  %31 = getelementptr inbounds nuw %struct.TupleTableSlot, ptr %30, i32 0, i32 2
  store i16 0, ptr %31, align 2
  %32 = load ptr, ptr %2, align 8
  %33 = getelementptr inbounds nuw %struct.TupleTableSlot, ptr %32, i32 0, i32 1
  %34 = load i16, ptr %33, align 4
  %35 = zext i16 %34 to i32
  %36 = or i32 %35, 2
  %37 = trunc i32 %36 to i16
  store i16 %37, ptr %33, align 4
  %38 = load ptr, ptr %2, align 8
  %39 = getelementptr inbounds nuw %struct.TupleTableSlot, ptr %38, i32 0, i32 8
  call void @ItemPointerSetInvalid(ptr noundef %39)
  ret void
}